; Function Attrs: mustprogress uwtable
define noundef i32 @_ZNK6icu_7713DecimalFormat13getMultiplierEv(ptr noundef nonnull readonly align 8 captures(none) dereferenceable(72) %0) local_unnamed_addr #1 align 2 {
  %2 = getelementptr inbounds nuw i8, ptr %0, i64 64
  %3 = load ptr, ptr %2, align 8, !tbaa !25
  %4 = icmp eq ptr %3, null
  br i1 %4, label %5, label %7

5:                                                ; preds = %1
  %6 = tail call noundef nonnull align 8 dereferenceable(757) ptr @_ZN6icu_776number4impl23DecimalFormatProperties10getDefaultEv()
  br label %9

7:                                                ; preds = %1
  %8 = getelementptr inbounds nuw i8, ptr %3, i64 8
  br label %9

9:                                                ; preds = %7, %5
  %.0 = phi ptr [ %6, %5 ], [ %8, %7 ]
  %10 = getelementptr inbounds nuw i8, ptr %.0, i64 120
  %11 = load i32, ptr %10, align 8, !tbaa !137
  %.not = icmp eq i32 %11, 1
  br i1 %.not, label %12, label %18

12:                                               ; preds = %9
  %13 = getelementptr inbounds nuw i8, ptr %.0, i64 84
  %14 = load i32, ptr %13, align 4, !tbaa !138
  %.not9 = icmp eq i32 %14, 0
  br i1 %.not9, label %18, label %15

15:                                               ; preds = %12
  %16 = tail call double @uprv_pow10_77(i32 noundef %14)
  %17 = fptosi double %16 to i32
  br label %18

18:                                               ; preds = %12, %9, %15
  %.05 = phi i32 [ %17, %15 ], [ %11, %9 ], [ 1, %12 ]
  ret i32 %.05
}